target datalayout = "e-m:e-p270:32:32-p271:32:32-p272:64:64-i64:64-i128:128-f80:128-n8:16:32:64-S128"
target triple = "x86_64-pc-linux-gnu"

%"class.cv::Size_" = type { i32, i32 }
%"class.cv::Mat" = type { i32, i32, i32, i32, ptr, ptr, ptr, ptr, ptr, ptr, %"struct.cv::MatSize", %"struct.cv::MatStep" }
%"struct.cv::MatSize" = type { ptr }
%"struct.cv::MatStep" = type { ptr, [2 x i64] }
%"struct.cv::MomentsInTile_SIMD.1" = type { i8 }

; Function Attrs: mustprogress nounwind uwtable
define linkonce_odr hidden void @_ZN2cv5Size_IiEC2Eii(ptr noundef nonnull align 4 dereferenceable(8) %0, i32 noundef %1, i32 noundef %2) unnamed_addr #0 comdat align 2 {
  %4 = alloca ptr, align 8
  %5 = alloca i32, align 4
  %6 = alloca i32, align 4
  store ptr %0, ptr %4, align 8
  store i32 %1, ptr %5, align 4
  store i32 %2, ptr %6, align 4
  %7 = load ptr, ptr %4, align 8
  %8 = getelementptr inbounds %"class.cv::Size_", ptr %7, i32 0, i32 0
  %9 = load i32, ptr %5, align 4
  store i32 %9, ptr %8, align 4
  %10 = getelementptr inbounds %"class.cv::Size_", ptr %7, i32 0, i32 1
  %11 = load i32, ptr %6, align 4
  store i32 %11, ptr %10, align 4
  ret void
}

; Function Attrs: mustprogress nounwind uwtable
define linkonce_odr hidden noundef i32 @_ZN2cv18MomentsInTile_SIMDItilEclEPKtiRiS4_S4_Rl(ptr noundef nonnull align 1 dereferenceable(1) %0, ptr noundef %1, i32 noundef %2, ptr noundef nonnull align 4 dereferenceable(4) %3, ptr noundef nonnull align 4 dereferenceable(4) %4, ptr noundef nonnull align 4 dereferenceable(4) %5, ptr noundef nonnull align 8 dereferenceable(8) %6) #0 comdat align 2 {
  %8 = alloca ptr, align 8
  %9 = alloca ptr, align 8
  %10 = alloca i32, align 4
  %11 = alloca ptr, align 8
  %12 = alloca ptr, align 8
  %13 = alloca ptr, align 8
  %14 = alloca ptr, align 8
  store ptr %0, ptr %8, align 8
  store ptr %1, ptr %9, align 8
  store i32 %2, ptr %10, align 4
  store ptr %3, ptr %11, align 8
  store ptr %4, ptr %12, align 8
  store ptr %5, ptr %13, align 8
  store ptr %6, ptr %14, align 8
  ret i32 0
}

; Function Attrs: mustprogress nounwind uwtable
define linkonce_odr hidden noundef ptr @_ZNK2cv3Mat3ptrItEEPKT_i(ptr noundef nonnull align 8 dereferenceable(96) %0, i32 noundef %1) #0 comdat align 2 {
  %3 = alloca ptr, align 8
  %4 = alloca i32, align 4
  store ptr %0, ptr %3, align 8
  store i32 %1, ptr %4, align 4
  %5 = load ptr, ptr %3, align 8
  %6 = getelementptr inbounds %"class.cv::Mat", ptr %5, i32 0, i32 4
  %7 = load ptr, ptr %6, align 8
  %8 = getelementptr inbounds %"class.cv::Mat", ptr %5, i32 0, i32 11
  %9 = getelementptr inbounds %"struct.cv::MatStep", ptr %8, i32 0, i32 0
  %10 = load ptr, ptr %9, align 8
  %11 = getelementptr inbounds i64, ptr %10, i64 0
  %12 = load i64, ptr %11, align 8
  %13 = load i32, ptr %4, align 4
  %14 = sext i32 %13 to i64
  %15 = mul i64 %12, %14
  %16 = getelementptr inbounds i8, ptr %7, i64 %15
  ret ptr %16
}

; Function Attrs: mustprogress uwtable
define linkonce_odr hidden i64 @_ZNK2cv7MatSizeclEv(ptr noundef nonnull align 8 dereferenceable(8) %0) #1 comdat align 2 {
  %2 = alloca %"class.cv::Size_", align 4
  %3 = alloca ptr, align 8
  store ptr %0, ptr %3, align 8
  %4 = load ptr, ptr %3, align 8
  %5 = getelementptr inbounds %"struct.cv::MatSize", ptr %4, i32 0, i32 0
  %6 = load ptr, ptr %5, align 8
  %7 = getelementptr inbounds i32, ptr %6, i64 1
  %8 = load i32, ptr %7, align 4
  %9 = getelementptr inbounds %"struct.cv::MatSize", ptr %4, i32 0, i32 0
  %10 = load ptr, ptr %9, align 8
  %11 = getelementptr inbounds i32, ptr %10, i64 0
  %12 = load i32, ptr %11, align 4
  call void @_ZN2cv5Size_IiEC2Eii(ptr noundef nonnull align 4 dereferenceable(8) %2, i32 noundef %8, i32 noundef %12)
  %13 = load i64, ptr %2, align 4
  ret i64 %13
}

; Function Attrs: mustprogress uwtable
define internal void @_ZN2cvL13momentsInTileItilEEvRKNS_3MatEPd(ptr noundef nonnull align 8 dereferenceable(96) %0, ptr noundef %1) #1 {
  %3 = alloca ptr, align 8
  %4 = alloca ptr, align 8
  %5 = alloca %"class.cv::Size_", align 4
  %6 = alloca i32, align 4
  %7 = alloca i32, align 4
  %8 = alloca [10 x i64], align 16
  %9 = alloca %"struct.cv::MomentsInTile_SIMD.1", align 1
  %10 = alloca ptr, align 8
  %11 = alloca i32, align 4
  %12 = alloca i32, align 4
  %13 = alloca i32, align 4
  %14 = alloca i64, align 8
  %15 = alloca i32, align 4
  %16 = alloca i32, align 4
  %17 = alloca i32, align 4
  %18 = alloca i32, align 4
  %19 = alloca i32, align 4
  store ptr %0, ptr %3, align 8
  store ptr %1, ptr %4, align 8
  %20 = load ptr, ptr %3, align 8
  %21 = getelementptr inbounds %"class.cv::Mat", ptr %20, i32 0, i32 10
  %22 = call i64 @_ZNK2cv7MatSizeclEv(ptr noundef nonnull align 8 dereferenceable(8) %21)
  store i64 %22, ptr %5, align 4
  call void @llvm.memset.p0.i64(ptr align 16 %8, i8 0, i64 80, i1 false)
  store i32 0, ptr %7, align 4
  br label %23

23:                                               ; preds = %141, %2
  %24 = load i32, ptr %7, align 4
  %25 = getelementptr inbounds %"class.cv::Size_", ptr %5, i32 0, i32 1
  %26 = load i32, ptr %25, align 4
  %27 = icmp slt i32 %24, %26
  br i1 %27, label %28, label %144

28:                                               ; preds = %23
  %29 = load ptr, ptr %3, align 8
  %30 = load i32, ptr %7, align 4
  %31 = call noundef ptr @_ZNK2cv3Mat3ptrItEEPKT_i(ptr noundef nonnull align 8 dereferenceable(96) %29, i32 noundef %30)
  store ptr %31, ptr %10, align 8
  store i32 0, ptr %11, align 4
  store i32 0, ptr %12, align 4
  store i32 0, ptr %13, align 4
  store i64 0, ptr %14, align 8
  %32 = load ptr, ptr %10, align 8
  %33 = getelementptr inbounds %"class.cv::Size_", ptr %5, i32 0, i32 0
  %34 = load i32, ptr %33, align 4
  %35 = call noundef i32 @_ZN2cv18MomentsInTile_SIMDItilEclEPKtiRiS4_S4_Rl(ptr noundef nonnull align 1 dereferenceable(1) %9, ptr noundef %32, i32 noundef %34, ptr noundef nonnull align 4 dereferenceable(4) %11, ptr noundef nonnull align 4 dereferenceable(4) %12, ptr noundef nonnull align 4 dereferenceable(4) %13, ptr noundef nonnull align 8 dereferenceable(8) %14)
  store i32 %35, ptr %6, align 4
  br label %36

36:                                               ; preds = %69, %28
  %37 = load i32, ptr %6, align 4
  %38 = getelementptr inbounds %"class.cv::Size_", ptr %5, i32 0, i32 0
  %39 = load i32, ptr %38, align 4
  %40 = icmp slt i32 %37, %39
  br i1 %40, label %41, label %72

41:                                               ; preds = %36
  %42 = load ptr, ptr %10, align 8
  %43 = load i32, ptr %6, align 4
  %44 = sext i32 %43 to i64
  %45 = getelementptr inbounds i16, ptr %42, i64 %44
  %46 = load i16, ptr %45, align 2
  %47 = zext i16 %46 to i32
  store i32 %47, ptr %15, align 4
  %48 = load i32, ptr %6, align 4
  %49 = load i32, ptr %15, align 4
  %50 = mul nsw i32 %48, %49
  store i32 %50, ptr %16, align 4
  %51 = load i32, ptr %15, align 4
  %52 = load i32, ptr %11, align 4
  %53 = add nsw i32 %52, %51
  store i32 %53, ptr %11, align 4
  %54 = load i32, ptr %16, align 4
  %55 = load i32, ptr %12, align 4
  %56 = add nsw i32 %55, %54
  store i32 %56, ptr %12, align 4
  %57 = load i32, ptr %16, align 4
  %58 = load i32, ptr %6, align 4
  %59 = mul nsw i32 %57, %58
  store i32 %59, ptr %17, align 4
  %60 = load i32, ptr %17, align 4
  %61 = load i32, ptr %13, align 4
  %62 = add nsw i32 %61, %60
  store i32 %62, ptr %13, align 4
  %63 = load i32, ptr %17, align 4
  %64 = load i32, ptr %6, align 4
  %65 = mul nsw i32 %63, %64
  %66 = sext i32 %65 to i64
  %67 = load i64, ptr %14, align 8
  %68 = add nsw i64 %67, %66
  store i64 %68, ptr %14, align 8
  br label %69

69:                                               ; preds = %41
  %70 = load i32, ptr %6, align 4
  %71 = add nsw i32 %70, 1
  store i32 %71, ptr %6, align 4
  br label %36, !llvm.loop !12

72:                                               ; preds = %36
  %73 = load i32, ptr %7, align 4
  %74 = load i32, ptr %11, align 4
  %75 = mul nsw i32 %73, %74
  store i32 %75, ptr %18, align 4
  %76 = load i32, ptr %7, align 4
  %77 = load i32, ptr %7, align 4
  %78 = mul nsw i32 %76, %77
  store i32 %78, ptr %19, align 4
  %79 = load i32, ptr %18, align 4
  %80 = sext i32 %79 to i64
  %81 = load i32, ptr %19, align 4
  %82 = sext i32 %81 to i64
  %83 = mul nsw i64 %80, %82
  %84 = getelementptr inbounds [10 x i64], ptr %8, i64 0, i64 9
  %85 = load i64, ptr %84, align 8
  %86 = add nsw i64 %85, %83
  store i64 %86, ptr %84, align 8
  %87 = load i32, ptr %12, align 4
  %88 = sext i32 %87 to i64
  %89 = load i32, ptr %19, align 4
  %90 = sext i32 %89 to i64
  %91 = mul nsw i64 %88, %90
  %92 = getelementptr inbounds [10 x i64], ptr %8, i64 0, i64 8
  %93 = load i64, ptr %92, align 16
  %94 = add nsw i64 %93, %91
  store i64 %94, ptr %92, align 16
  %95 = load i32, ptr %13, align 4
  %96 = sext i32 %95 to i64
  %97 = load i32, ptr %7, align 4
  %98 = sext i32 %97 to i64
  %99 = mul nsw i64 %96, %98
  %100 = getelementptr inbounds [10 x i64], ptr %8, i64 0, i64 7
  %101 = load i64, ptr %100, align 8
  %102 = add nsw i64 %101, %99
  store i64 %102, ptr %100, align 8
  %103 = load i64, ptr %14, align 8
  %104 = getelementptr inbounds [10 x i64], ptr %8, i64 0, i64 6
  %105 = load i64, ptr %104, align 16
  %106 = add nsw i64 %105, %103
  store i64 %106, ptr %104, align 16
  %107 = load i32, ptr %11, align 4
  %108 = load i32, ptr %19, align 4
  %109 = mul nsw i32 %107, %108
  %110 = sext i32 %109 to i64
  %111 = getelementptr inbounds [10 x i64], ptr %8, i64 0, i64 5
  %112 = load i64, ptr %111, align 8
  %113 = add nsw i64 %112, %110
  store i64 %113, ptr %111, align 8
  %114 = load i32, ptr %12, align 4
  %115 = load i32, ptr %7, align 4
  %116 = mul nsw i32 %114, %115
  %117 = sext i32 %116 to i64
  %118 = getelementptr inbounds [10 x i64], ptr %8, i64 0, i64 4
  %119 = load i64, ptr %118, align 16
  %120 = add nsw i64 %119, %117
  store i64 %120, ptr %118, align 16
  %121 = load i32, ptr %13, align 4
  %122 = sext i32 %121 to i64
  %123 = getelementptr inbounds [10 x i64], ptr %8, i64 0, i64 3
  %124 = load i64, ptr %123, align 8
  %125 = add nsw i64 %124, %122
  store i64 %125, ptr %123, align 8
  %126 = load i32, ptr %18, align 4
  %127 = sext i32 %126 to i64
  %128 = getelementptr inbounds [10 x i64], ptr %8, i64 0, i64 2
  %129 = load i64, ptr %128, align 16
  %130 = add nsw i64 %129, %127
  store i64 %130, ptr %128, align 16
  %131 = load i32, ptr %12, align 4
  %132 = sext i32 %131 to i64
  %133 = getelementptr inbounds [10 x i64], ptr %8, i64 0, i64 1
  %134 = load i64, ptr %133, align 8
  %135 = add nsw i64 %134, %132
  store i64 %135, ptr %133, align 8
  %136 = load i32, ptr %11, align 4
  %137 = sext i32 %136 to i64
  %138 = getelementptr inbounds [10 x i64], ptr %8, i64 0, i64 0
  %139 = load i64, ptr %138, align 16
  %140 = add nsw i64 %139, %137
  store i64 %140, ptr %138, align 16
  br label %141

141:                                              ; preds = %72
  %142 = load i32, ptr %7, align 4
  %143 = add nsw i32 %142, 1
  store i32 %143, ptr %7, align 4
  br label %23, !llvm.loop !13

144:                                              ; preds = %23
  store i32 0, ptr %6, align 4
  br label %145

145:                                              ; preds = %158, %144
  %146 = load i32, ptr %6, align 4
  %147 = icmp slt i32 %146, 10
  br i1 %147, label %148, label %161

148:                                              ; preds = %145
  %149 = load i32, ptr %6, align 4
  %150 = sext i32 %149 to i64
  %151 = getelementptr inbounds [10 x i64], ptr %8, i64 0, i64 %150
  %152 = load i64, ptr %151, align 8
  %153 = sitofp i64 %152 to double
  %154 = load ptr, ptr %4, align 8
  %155 = load i32, ptr %6, align 4
  %156 = sext i32 %155 to i64
  %157 = getelementptr inbounds double, ptr %154, i64 %156
  store double %153, ptr %157, align 8
  br label %158

158:                                              ; preds = %148
  %159 = load i32, ptr %6, align 4
  %160 = add nsw i32 %159, 1
  store i32 %160, ptr %6, align 4
  br label %145, !llvm.loop !14

161:                                              ; preds = %145
  ret void
}