; Function Attrs: mustprogress nofree norecurse nosync nounwind memory(read, argmem: readwrite, inaccessiblemem: none) uwtable
define internal void @_ZN2cvL13momentsInTileItilEEvRKNS_3MatEPd(ptr nocapture noundef nonnull readonly align 8 dereferenceable(96) %0, ptr nocapture noundef writeonly %1) unnamed_addr #7 {
  %3 = alloca [10 x i64], align 16
  %4 = getelementptr inbounds i8, ptr %0, i64 64
  %5 = load ptr, ptr %4, align 8
  %6 = getelementptr inbounds i8, ptr %5, i64 4
  %7 = load i32, ptr %6, align 4
  %8 = load i32, ptr %5, align 4
  call void @llvm.memset.p0.i64(ptr noundef nonnull align 16 dereferenceable(80) %3, i8 0, i64 80, i1 false)
  %9 = icmp sgt i32 %8, 0
  br i1 %9, label %.lr.ph61, label %.preheader

.lr.ph61:                                         ; preds = %2
  %10 = getelementptr inbounds i8, ptr %0, i64 16
  %11 = load ptr, ptr %10, align 8
  %12 = getelementptr inbounds i8, ptr %0, i64 72
  %13 = load ptr, ptr %12, align 8
  %14 = load i64, ptr %13, align 8
  %15 = icmp sgt i32 %7, 0
  %16 = getelementptr inbounds i8, ptr %3, i64 72
  %17 = getelementptr inbounds i8, ptr %3, i64 64
  %18 = getelementptr inbounds i8, ptr %3, i64 56
  %19 = getelementptr inbounds i8, ptr %3, i64 48
  %20 = getelementptr inbounds i8, ptr %3, i64 40
  %21 = getelementptr inbounds i8, ptr %3, i64 32
  %22 = getelementptr inbounds i8, ptr %3, i64 24
  %23 = getelementptr inbounds i8, ptr %3, i64 16
  %24 = getelementptr inbounds i8, ptr %3, i64 8
  br i1 %15, label %.lr.ph.us.preheader, label %..preheader_crit_edge

.lr.ph.us.preheader:                              ; preds = %.lr.ph61
  %wide.trip.count110 = zext nneg i32 %8 to i64
  %wide.trip.count = zext nneg i32 %7 to i64
  br label %.lr.ph.us

.lr.ph.us:                                        ; preds = %.lr.ph.us.preheader, %._crit_edge.us
  %indvars.iv107 = phi i64 [ 0, %.lr.ph.us.preheader ], [ %indvars.iv.next108, %._crit_edge.us ]
  %25 = phi i64 [ 0, %.lr.ph.us.preheader ], [ %68, %._crit_edge.us ]
  %26 = phi i64 [ 0, %.lr.ph.us.preheader ], [ %67, %._crit_edge.us ]
  %27 = phi i64 [ 0, %.lr.ph.us.preheader ], [ %66, %._crit_edge.us ]
  %28 = phi i64 [ 0, %.lr.ph.us.preheader ], [ %65, %._crit_edge.us ]
  %29 = phi i64 [ 0, %.lr.ph.us.preheader ], [ %63, %._crit_edge.us ]
  %30 = phi i64 [ 0, %.lr.ph.us.preheader ], [ %61, %._crit_edge.us ]
  %31 = phi i64 [ 0, %.lr.ph.us.preheader ], [ %60, %._crit_edge.us ]
  %32 = phi i64 [ 0, %.lr.ph.us.preheader ], [ %57, %._crit_edge.us ]
  %33 = phi i64 [ 0, %.lr.ph.us.preheader ], [ %54, %._crit_edge.us ]
  %34 = phi i64 [ 0, %.lr.ph.us.preheader ], [ %69, %._crit_edge.us ]
  %35 = mul i64 %14, %indvars.iv107
  %36 = getelementptr inbounds i8, ptr %11, i64 %35
  br label %37

37:                                               ; preds = %.lr.ph.us, %37
  %indvars.iv = phi i64 [ 0, %.lr.ph.us ], [ %indvars.iv.next, %37 ]
  %.04754.us = phi i64 [ 0, %.lr.ph.us ], [ %49, %37 ]
  %.04853.us = phi i32 [ 0, %.lr.ph.us ], [ %46, %37 ]
  %.04952.us = phi i32 [ 0, %.lr.ph.us ], [ %44, %37 ]
  %.05051.us = phi i32 [ 0, %.lr.ph.us ], [ %43, %37 ]
  %38 = getelementptr inbounds i16, ptr %36, i64 %indvars.iv
  %39 = load i16, ptr %38, align 2
  %40 = zext i16 %39 to i32
  %41 = trunc nuw nsw i64 %indvars.iv to i32
  %42 = mul nuw nsw i32 %41, %40
  %43 = add nuw nsw i32 %.05051.us, %40
  %44 = add nuw nsw i32 %42, %.04952.us
  %45 = mul nuw nsw i32 %42, %41
  %46 = add nuw nsw i32 %45, %.04853.us
  %47 = zext i32 %45 to i64
  %48 = mul nuw nsw i64 %indvars.iv, %47
  %49 = add nuw nsw i64 %.04754.us, %48
  %indvars.iv.next = add nuw nsw i64 %indvars.iv, 1
  %exitcond.not = icmp eq i64 %indvars.iv.next, %wide.trip.count
  br i1 %exitcond.not, label %._crit_edge.us, label %37, !llvm.loop !18

._crit_edge.us:                                   ; preds = %37
  %50 = zext nneg i32 %43 to i64
  %51 = mul nuw nsw i64 %indvars.iv107, %50
  %52 = mul nuw nsw i64 %indvars.iv107, %indvars.iv107
  %53 = mul nuw nsw i64 %51, %52
  %54 = add nuw nsw i64 %33, %53
  %55 = zext i32 %44 to i64
  %56 = mul nuw nsw i64 %52, %55
  %57 = add nuw nsw i64 %32, %56
  %58 = zext nneg i32 %46 to i64
  %59 = mul nuw nsw i64 %indvars.iv107, %58
  %60 = add nuw nsw i64 %31, %59
  %61 = add nuw nsw i64 %30, %49
  %62 = mul nuw nsw i64 %52, %50
  %63 = add nuw nsw i64 %29, %62
  %64 = mul nuw nsw i64 %indvars.iv107, %55
  %65 = add nuw nsw i64 %28, %64
  %66 = add nuw nsw i64 %27, %58
  %67 = add nuw nsw i64 %26, %51
  %68 = add nuw nsw i64 %25, %55
  %69 = add nuw nsw i64 %34, %50
  %indvars.iv.next108 = add nuw nsw i64 %indvars.iv107, 1
  %exitcond111.not = icmp eq i64 %indvars.iv.next108, %wide.trip.count110
  br i1 %exitcond111.not, label %..preheader_crit_edge, label %.lr.ph.us, !llvm.loop !19

..preheader_crit_edge:                            ; preds = %._crit_edge.us, %.lr.ph61
  %.us-phi = phi i64 [ 0, %.lr.ph61 ], [ %68, %._crit_edge.us ]
  %.us-phi81 = phi i64 [ 0, %.lr.ph61 ], [ %67, %._crit_edge.us ]
  %.us-phi82 = phi i64 [ 0, %.lr.ph61 ], [ %66, %._crit_edge.us ]
  %.us-phi83 = phi i64 [ 0, %.lr.ph61 ], [ %65, %._crit_edge.us ]
  %.us-phi84 = phi i64 [ 0, %.lr.ph61 ], [ %63, %._crit_edge.us ]
  %.us-phi85 = phi i64 [ 0, %.lr.ph61 ], [ %61, %._crit_edge.us ]
  %.us-phi86 = phi i64 [ 0, %.lr.ph61 ], [ %60, %._crit_edge.us ]
  %.us-phi87 = phi i64 [ 0, %.lr.ph61 ], [ %57, %._crit_edge.us ]
  %.us-phi88 = phi i64 [ 0, %.lr.ph61 ], [ %54, %._crit_edge.us ]
  %.us-phi89 = phi i64 [ 0, %.lr.ph61 ], [ %69, %._crit_edge.us ]
  store i64 %.us-phi88, ptr %16, align 8
  store i64 %.us-phi87, ptr %17, align 16
  store i64 %.us-phi86, ptr %18, align 8
  store i64 %.us-phi85, ptr %19, align 16
  store i64 %.us-phi84, ptr %20, align 8
  store i64 %.us-phi83, ptr %21, align 16
  store i64 %.us-phi82, ptr %22, align 8
  store i64 %.us-phi81, ptr %23, align 16
  store i64 %.us-phi, ptr %24, align 8
  br label %.preheader

.preheader:                                       ; preds = %..preheader_crit_edge, %2
  %.lcssa = phi i64 [ %.us-phi89, %..preheader_crit_edge ], [ 0, %2 ]
  store i64 %.lcssa, ptr %3, align 16
  br label %70

70:                                               ; preds = %.preheader, %70
  %indvars.iv112 = phi i64 [ 0, %.preheader ], [ %indvars.iv.next113, %70 ]
  %71 = getelementptr inbounds [10 x i64], ptr %3, i64 0, i64 %indvars.iv112
  %72 = load i64, ptr %71, align 8
  %73 = sitofp i64 %72 to double
  %74 = getelementptr inbounds double, ptr %1, i64 %indvars.iv112
  store double %73, ptr %74, align 8
  %indvars.iv.next113 = add nuw nsw i64 %indvars.iv112, 1
  %exitcond115.not = icmp eq i64 %indvars.iv.next113, 10
  br i1 %exitcond115.not, label %75, label %70, !llvm.loop !20

75:                                               ; preds = %70
  ret void
}